target datalayout = "e-m:e-p270:32:32-p271:32:32-p272:64:64-i64:64-i128:128-f80:128-n8:16:32:64-S128"
target triple = "x86_64-pc-linux-gnu"

; Function Attrs: nounwind uwtable
define internal i32 @ev_diff(i32 noundef %0, ptr noundef %1, ptr noundef %2, i32 noundef %3) #0 {
  %5 = alloca i32, align 4
  %6 = alloca i32, align 4
  %7 = alloca ptr, align 8
  %8 = alloca ptr, align 8
  %9 = alloca i32, align 4
  store i32 %0, ptr %6, align 4, !tbaa !3
  store ptr %1, ptr %7, align 8, !tbaa !26
  store ptr %2, ptr %8, align 8, !tbaa !26
  store i32 %3, ptr %9, align 4, !tbaa !3
  %10 = load i32, ptr %6, align 4, !tbaa !3
  switch i32 %10, label %33 [
    i32 3, label %11
    i32 4, label %11
    i32 1, label %18
    i32 2, label %24
    i32 5, label %32
  ]

11:                                               ; preds = %4, %4
  %12 = load ptr, ptr %7, align 8, !tbaa !26
  %13 = load i64, ptr %12, align 8, !tbaa !23
  %14 = load ptr, ptr %8, align 8, !tbaa !26
  %15 = load i64, ptr %14, align 8, !tbaa !23
  %16 = icmp ne i64 %13, %15
  %17 = zext i1 %16 to i32
  store i32 %17, ptr %5, align 4
  br label %35

18:                                               ; preds = %4
  %19 = load ptr, ptr %7, align 8, !tbaa !26
  %20 = load ptr, ptr %19, align 8, !tbaa !23
  %21 = load ptr, ptr %8, align 8, !tbaa !26
  %22 = load ptr, ptr %21, align 8, !tbaa !23
  %23 = call i32 @strcmp(ptr noundef %20, ptr noundef %22) #10
  store i32 %23, ptr %5, align 4
  br label %35

24:                                               ; preds = %4
  %25 = load ptr, ptr %7, align 8, !tbaa !26
  %26 = load ptr, ptr %25, align 8, !tbaa !23
  %27 = load ptr, ptr %8, align 8, !tbaa !26
  %28 = load ptr, ptr %27, align 8, !tbaa !23
  %29 = load i32, ptr %9, align 4, !tbaa !3
  %30 = zext i32 %29 to i64
  %31 = call i32 @memcmp(ptr noundef %26, ptr noundef %28, i64 noundef %30) #10
  store i32 %31, ptr %5, align 4
  br label %35

32:                                               ; preds = %4
  store i32 0, ptr %5, align 4
  br label %35

33:                                               ; preds = %4
  br label %34

34:                                               ; preds = %33
  store i32 0, ptr %5, align 4
  br label %35

35:                                               ; preds = %34, %32, %24, %18, %11
  %36 = load i32, ptr %5, align 4
  ret i32 %36
}