; Function Attrs: mustprogress nofree nounwind willreturn memory(read, inaccessiblemem: none) uwtable
define internal fastcc i32 @ev_diff(i32 noundef range(i32 0, 256) %0, ptr noundef readonly captures(none) %1, ptr noundef readonly captures(none) %2, i32 noundef %3) unnamed_addr #10 {
  %trunc = trunc nuw i32 %0 to i8
  switch i8 %trunc, label %19 [
    i8 3, label %5
    i8 4, label %5
    i8 1, label %10
    i8 2, label %14
  ]

5:                                                ; preds = %4, %4
  %6 = load i64, ptr %1, align 8, !tbaa !17
  %7 = load i64, ptr %2, align 8, !tbaa !17
  %8 = icmp ne i64 %6, %7
  %9 = zext i1 %8 to i32
  br label %19

10:                                               ; preds = %4
  %11 = load ptr, ptr %1, align 8, !tbaa !17
  %12 = load ptr, ptr %2, align 8, !tbaa !17
  %13 = tail call i32 @strcmp(ptr noundef nonnull dereferenceable(1) %11, ptr noundef nonnull dereferenceable(1) %12) #15
  br label %19

14:                                               ; preds = %4
  %15 = load ptr, ptr %1, align 8, !tbaa !17
  %16 = load ptr, ptr %2, align 8, !tbaa !17
  %17 = zext i32 %3 to i64
  %18 = tail call i32 @memcmp(ptr noundef %15, ptr noundef %16, i64 noundef %17) #15
  br label %19

19:                                               ; preds = %4, %14, %10, %5
  %.0 = phi i32 [ %18, %14 ], [ %13, %10 ], [ %9, %5 ], [ 0, %4 ]
  ret i32 %.0
}